target datalayout = "e-m:e-p270:32:32-p271:32:32-p272:64:64-i64:64-i128:128-f80:128-n8:16:32:64-S128"
target triple = "x86_64-pc-linux-gnu"

%struct.AVMotionEstContext = type { ptr, ptr, i32, i32, i32, i32, i32, i32, i32, i32, i32, i32, i32, [2 x %struct.AVMotionEstPredictor], ptr }
%struct.AVMotionEstPredictor = type { [10 x [2 x i32]], i32 }

; Function Attrs: nounwind uwtable
define i64 @ff_me_cmp_sad(ptr noundef %0, i32 noundef %1, i32 noundef %2, i32 noundef %3, i32 noundef %4) #0 {
  %6 = alloca ptr, align 8
  %7 = alloca i32, align 4
  %8 = alloca i32, align 4
  %9 = alloca i32, align 4
  %10 = alloca i32, align 4
  %11 = alloca i32, align 4
  %12 = alloca ptr, align 8
  %13 = alloca ptr, align 8
  %14 = alloca i64, align 8
  %15 = alloca i32, align 4
  %16 = alloca i32, align 4
  store ptr %0, ptr %6, align 8, !tbaa !4
  store i32 %1, ptr %7, align 4, !tbaa !9
  store i32 %2, ptr %8, align 4, !tbaa !9
  store i32 %3, ptr %9, align 4, !tbaa !9
  store i32 %4, ptr %10, align 4, !tbaa !9
  call void @llvm.lifetime.start.p0(i64 4, ptr %11) #2
  %17 = load ptr, ptr %6, align 8, !tbaa !4
  %18 = getelementptr inbounds nuw %struct.AVMotionEstContext, ptr %17, i32 0, i32 2
  %19 = load i32, ptr %18, align 8, !tbaa !22
  store i32 %19, ptr %11, align 4, !tbaa !9
  call void @llvm.lifetime.start.p0(i64 8, ptr %12) #2
  %20 = load ptr, ptr %6, align 8, !tbaa !4
  %21 = getelementptr inbounds nuw %struct.AVMotionEstContext, ptr %20, i32 0, i32 1
  %22 = load ptr, ptr %21, align 8, !tbaa !23
  store ptr %22, ptr %12, align 8, !tbaa !24
  call void @llvm.lifetime.start.p0(i64 8, ptr %13) #2
  %23 = load ptr, ptr %6, align 8, !tbaa !4
  %24 = getelementptr inbounds nuw %struct.AVMotionEstContext, ptr %23, i32 0, i32 0
  %25 = load ptr, ptr %24, align 8, !tbaa !25
  store ptr %25, ptr %13, align 8, !tbaa !24
  call void @llvm.lifetime.start.p0(i64 8, ptr %14) #2
  store i64 0, ptr %14, align 8, !tbaa !26
  call void @llvm.lifetime.start.p0(i64 4, ptr %15) #2
  call void @llvm.lifetime.start.p0(i64 4, ptr %16) #2
  %26 = load i32, ptr %10, align 4, !tbaa !9
  %27 = load i32, ptr %11, align 4, !tbaa !9
  %28 = mul nsw i32 %26, %27
  %29 = load ptr, ptr %12, align 8, !tbaa !24
  %30 = sext i32 %28 to i64
  %31 = getelementptr inbounds i8, ptr %29, i64 %30
  store ptr %31, ptr %12, align 8, !tbaa !24
  %32 = load i32, ptr %8, align 4, !tbaa !9
  %33 = load i32, ptr %11, align 4, !tbaa !9
  %34 = mul nsw i32 %32, %33
  %35 = load ptr, ptr %13, align 8, !tbaa !24
  %36 = sext i32 %34 to i64
  %37 = getelementptr inbounds i8, ptr %35, i64 %36
  store ptr %37, ptr %13, align 8, !tbaa !24
  store i32 0, ptr %16, align 4, !tbaa !9
  br label %38

38:                                               ; preds = %140, %5
  %39 = load i32, ptr %16, align 4, !tbaa !9
  %40 = load ptr, ptr %6, align 8, !tbaa !4
  %41 = getelementptr inbounds nuw %struct.AVMotionEstContext, ptr %40, i32 0, i32 3
  %42 = load i32, ptr %41, align 4, !tbaa !15
  %43 = icmp slt i32 %39, %42
  br i1 %43, label %44, label %143

44:                                               ; preds = %38
  store i32 0, ptr %15, align 4, !tbaa !9
  br label %45

45:                                               ; preds = %136, %44
  %46 = load i32, ptr %15, align 4, !tbaa !9
  %47 = load ptr, ptr %6, align 8, !tbaa !4
  %48 = getelementptr inbounds nuw %struct.AVMotionEstContext, ptr %47, i32 0, i32 3
  %49 = load i32, ptr %48, align 4, !tbaa !15
  %50 = icmp slt i32 %46, %49
  br i1 %50, label %51, label %139

51:                                               ; preds = %45
  %52 = load ptr, ptr %12, align 8, !tbaa !24
  %53 = load i32, ptr %9, align 4, !tbaa !9
  %54 = load i32, ptr %15, align 4, !tbaa !9
  %55 = add nsw i32 %53, %54
  %56 = load i32, ptr %16, align 4, !tbaa !9
  %57 = load i32, ptr %11, align 4, !tbaa !9
  %58 = mul nsw i32 %56, %57
  %59 = add nsw i32 %55, %58
  %60 = sext i32 %59 to i64
  %61 = getelementptr inbounds i8, ptr %52, i64 %60
  %62 = load i8, ptr %61, align 1, !tbaa !28
  %63 = zext i8 %62 to i32
  %64 = load ptr, ptr %13, align 8, !tbaa !24
  %65 = load i32, ptr %7, align 4, !tbaa !9
  %66 = load i32, ptr %15, align 4, !tbaa !9
  %67 = add nsw i32 %65, %66
  %68 = load i32, ptr %16, align 4, !tbaa !9
  %69 = load i32, ptr %11, align 4, !tbaa !9
  %70 = mul nsw i32 %68, %69
  %71 = add nsw i32 %67, %70
  %72 = sext i32 %71 to i64
  %73 = getelementptr inbounds i8, ptr %64, i64 %72
  %74 = load i8, ptr %73, align 1, !tbaa !28
  %75 = zext i8 %74 to i32
  %76 = sub nsw i32 %63, %75
  %77 = icmp sge i32 %76, 0
  br i1 %77, label %78, label %104

78:                                               ; preds = %51
  %79 = load ptr, ptr %12, align 8, !tbaa !24
  %80 = load i32, ptr %9, align 4, !tbaa !9
  %81 = load i32, ptr %15, align 4, !tbaa !9
  %82 = add nsw i32 %80, %81
  %83 = load i32, ptr %16, align 4, !tbaa !9
  %84 = load i32, ptr %11, align 4, !tbaa !9
  %85 = mul nsw i32 %83, %84
  %86 = add nsw i32 %82, %85
  %87 = sext i32 %86 to i64
  %88 = getelementptr inbounds i8, ptr %79, i64 %87
  %89 = load i8, ptr %88, align 1, !tbaa !28
  %90 = zext i8 %89 to i32
  %91 = load ptr, ptr %13, align 8, !tbaa !24
  %92 = load i32, ptr %7, align 4, !tbaa !9
  %93 = load i32, ptr %15, align 4, !tbaa !9
  %94 = add nsw i32 %92, %93
  %95 = load i32, ptr %16, align 4, !tbaa !9
  %96 = load i32, ptr %11, align 4, !tbaa !9
  %97 = mul nsw i32 %95, %96
  %98 = add nsw i32 %94, %97
  %99 = sext i32 %98 to i64
  %100 = getelementptr inbounds i8, ptr %91, i64 %99
  %101 = load i8, ptr %100, align 1, !tbaa !28
  %102 = zext i8 %101 to i32
  %103 = sub nsw i32 %90, %102
  br label %131

104:                                              ; preds = %51
  %105 = load ptr, ptr %12, align 8, !tbaa !24
  %106 = load i32, ptr %9, align 4, !tbaa !9
  %107 = load i32, ptr %15, align 4, !tbaa !9
  %108 = add nsw i32 %106, %107
  %109 = load i32, ptr %16, align 4, !tbaa !9
  %110 = load i32, ptr %11, align 4, !tbaa !9
  %111 = mul nsw i32 %109, %110
  %112 = add nsw i32 %108, %111
  %113 = sext i32 %112 to i64
  %114 = getelementptr inbounds i8, ptr %105, i64 %113
  %115 = load i8, ptr %114, align 1, !tbaa !28
  %116 = zext i8 %115 to i32
  %117 = load ptr, ptr %13, align 8, !tbaa !24
  %118 = load i32, ptr %7, align 4, !tbaa !9
  %119 = load i32, ptr %15, align 4, !tbaa !9
  %120 = add nsw i32 %118, %119
  %121 = load i32, ptr %16, align 4, !tbaa !9
  %122 = load i32, ptr %11, align 4, !tbaa !9
  %123 = mul nsw i32 %121, %122
  %124 = add nsw i32 %120, %123
  %125 = sext i32 %124 to i64
  %126 = getelementptr inbounds i8, ptr %117, i64 %125
  %127 = load i8, ptr %126, align 1, !tbaa !28
  %128 = zext i8 %127 to i32
  %129 = sub nsw i32 %116, %128
  %130 = sub nsw i32 0, %129
  br label %131

131:                                              ; preds = %104, %78
  %132 = phi i32 [ %103, %78 ], [ %130, %104 ]
  %133 = sext i32 %132 to i64
  %134 = load i64, ptr %14, align 8, !tbaa !26
  %135 = add i64 %134, %133
  store i64 %135, ptr %14, align 8, !tbaa !26
  br label %136

136:                                              ; preds = %131
  %137 = load i32, ptr %15, align 4, !tbaa !9
  %138 = add nsw i32 %137, 1
  store i32 %138, ptr %15, align 4, !tbaa !9
  br label %45, !llvm.loop !29

139:                                              ; preds = %45
  br label %140

140:                                              ; preds = %139
  %141 = load i32, ptr %16, align 4, !tbaa !9
  %142 = add nsw i32 %141, 1
  store i32 %142, ptr %16, align 4, !tbaa !9
  br label %38, !llvm.loop !31

143:                                              ; preds = %38
  %144 = load i64, ptr %14, align 8, !tbaa !26
  call void @llvm.lifetime.end.p0(i64 4, ptr %16) #2
  call void @llvm.lifetime.end.p0(i64 4, ptr %15) #2
  call void @llvm.lifetime.end.p0(i64 8, ptr %14) #2
  call void @llvm.lifetime.end.p0(i64 8, ptr %13) #2
  call void @llvm.lifetime.end.p0(i64 8, ptr %12) #2
  call void @llvm.lifetime.end.p0(i64 4, ptr %11) #2
  ret i64 %144
}