; Function Attrs: nofree norecurse nosync nounwind memory(read, inaccessiblemem: none) uwtable
define i64 @ff_me_cmp_sad(ptr noundef readonly captures(none) %0, i32 noundef %1, i32 noundef %2, i32 noundef %3, i32 noundef %4) #1 {
  %6 = getelementptr inbounds nuw i8, ptr %0, i64 16
  %7 = load i32, ptr %6, align 8, !tbaa !19
  %8 = getelementptr inbounds nuw i8, ptr %0, i64 8
  %9 = load ptr, ptr %8, align 8, !tbaa !20
  %10 = load ptr, ptr %0, align 8, !tbaa !21
  %11 = mul nsw i32 %7, %4
  %12 = sext i32 %11 to i64
  %13 = getelementptr inbounds i8, ptr %9, i64 %12
  %14 = mul nsw i32 %7, %2
  %15 = sext i32 %14 to i64
  %16 = getelementptr inbounds i8, ptr %10, i64 %15
  %17 = getelementptr inbounds nuw i8, ptr %0, i64 20
  %18 = load i32, ptr %17, align 4, !tbaa !12
  %19 = icmp sgt i32 %18, 0
  br i1 %19, label %.preheader.us.preheader, label %._crit_edge54

.preheader.us.preheader:                          ; preds = %5
  %wide.trip.count = zext nneg i32 %18 to i64
  br label %.preheader.us

.preheader.us:                                    ; preds = %.preheader.us.preheader, %._crit_edge.us
  %.053.us = phi i32 [ %39, %._crit_edge.us ], [ 0, %.preheader.us.preheader ]
  %.04752.us = phi i64 [ %38, %._crit_edge.us ], [ 0, %.preheader.us.preheader ]
  %20 = mul nsw i32 %.053.us, %7
  %21 = add i32 %20, %3
  %22 = add i32 %20, %1
  br label %23

23:                                               ; preds = %.preheader.us, %23
  %indvars.iv = phi i64 [ 0, %.preheader.us ], [ %indvars.iv.next, %23 ]
  %.150.us = phi i64 [ %.04752.us, %.preheader.us ], [ %38, %23 ]
  %24 = trunc nuw nsw i64 %indvars.iv to i32
  %25 = add i32 %21, %24
  %26 = sext i32 %25 to i64
  %27 = getelementptr inbounds i8, ptr %13, i64 %26
  %28 = load i8, ptr %27, align 1, !tbaa !22
  %29 = zext i8 %28 to i32
  %30 = add i32 %22, %24
  %31 = sext i32 %30 to i64
  %32 = getelementptr inbounds i8, ptr %16, i64 %31
  %33 = load i8, ptr %32, align 1, !tbaa !22
  %34 = zext i8 %33 to i32
  %35 = sub nsw i32 %29, %34
  %36 = tail call i32 @llvm.abs.i32(i32 %35, i1 true)
  %37 = zext nneg i32 %36 to i64
  %38 = add i64 %.150.us, %37
  %indvars.iv.next = add nuw nsw i64 %indvars.iv, 1
  %exitcond.not = icmp eq i64 %indvars.iv.next, %wide.trip.count
  br i1 %exitcond.not, label %._crit_edge.us, label %23, !llvm.loop !23

._crit_edge.us:                                   ; preds = %23
  %39 = add nuw nsw i32 %.053.us, 1
  %exitcond57.not = icmp eq i32 %39, %18
  br i1 %exitcond57.not, label %._crit_edge54, label %.preheader.us, !llvm.loop !25

._crit_edge54:                                    ; preds = %._crit_edge.us, %5
  %.047.lcssa = phi i64 [ 0, %5 ], [ %38, %._crit_edge.us ]
  ret i64 %.047.lcssa
}